; Function Attrs: mustprogress uwtable
define hidden noundef zeroext i1 @_ZN7nanogui12VScrollPanel16mouse_drag_eventERKNS_5ArrayIiLm2EEES4_ii(ptr noundef nonnull align 8 dereferenceable(149) %0, ptr noundef nonnull align 4 dereferenceable(8) %1, ptr noundef nonnull align 4 dereferenceable(8) %2, i32 noundef %3, i32 noundef %4) unnamed_addr #0 align 2 {
  %6 = getelementptr inbounds i8, ptr %0, i64 64
  %7 = load ptr, ptr %6, align 8
  %8 = getelementptr inbounds i8, ptr %0, i64 72
  %9 = load ptr, ptr %8, align 8
  %10 = icmp eq ptr %7, %9
  br i1 %10, label %36, label %11

11:                                               ; preds = %5
  %12 = getelementptr inbounds i8, ptr %0, i64 140
  %13 = load i32, ptr %12, align 4
  %14 = getelementptr inbounds i8, ptr %0, i64 52
  %15 = load i32, ptr %14, align 4
  %16 = icmp sgt i32 %13, %15
  br i1 %16, label %17, label %36

17:                                               ; preds = %11
  %18 = sitofp i32 %15 to float
  %19 = sitofp i32 %13 to float
  %20 = fdiv float %18, %19
  %21 = fcmp olt float %20, 1.000000e+00
  %.sroa.speculated13 = select i1 %21, float %20, float 1.000000e+00
  %22 = fmul float %.sroa.speculated13, %18
  %23 = getelementptr inbounds i8, ptr %0, i64 144
  %24 = load float, ptr %23, align 8
  %25 = getelementptr inbounds i8, ptr %2, i64 4
  %26 = load i32, ptr %25, align 4
  %27 = sitofp i32 %26 to float
  %28 = fadd float %18, -8.000000e+00
  %29 = fsub float %28, %22
  %30 = fdiv float %27, %29
  %31 = fadd float %24, %30
  %32 = fcmp olt float %31, 1.000000e+00
  %33 = select i1 %32, float %31, float 1.000000e+00
  %34 = fcmp ogt float %33, 0.000000e+00
  %.sroa.speculated = select i1 %34, float %33, float 0.000000e+00
  store float %.sroa.speculated, ptr %23, align 8
  %35 = getelementptr inbounds i8, ptr %0, i64 148
  store i8 1, ptr %35, align 4
  br label %38

36:                                               ; preds = %11, %5
  %37 = tail call noundef zeroext i1 @_ZN7nanogui6Widget16mouse_drag_eventERKNS_5ArrayIiLm2EEES4_ii(ptr noundef nonnull align 8 dereferenceable(140) %0, ptr noundef nonnull align 4 dereferenceable(8) %1, ptr noundef nonnull align 4 dereferenceable(8) %2, i32 noundef %3, i32 noundef %4)
  br label %38

38:                                               ; preds = %36, %17
  %.0 = phi i1 [ %37, %36 ], [ true, %17 ]
  ret i1 %.0
}